target datalayout = "e-m:e-p270:32:32-p271:32:32-p272:64:64-i64:64-i128:128-f80:128-n8:16:32:64-S128"
target triple = "x86_64-pc-linux-gnu"

; Function Attrs: cold nounwind optsize uwtable
define void @ff_rl_init_level_run(ptr noundef %0, ptr noundef %1, ptr noundef %2, ptr noundef %3, i32 noundef %4) #0 {
  %6 = alloca ptr, align 8
  %7 = alloca ptr, align 8
  %8 = alloca ptr, align 8
  %9 = alloca ptr, align 8
  %10 = alloca i32, align 4
  %11 = alloca i32, align 4
  %12 = alloca i32, align 4
  %13 = alloca i32, align 4
  store ptr %0, ptr %6, align 8, !tbaa !4
  store ptr %1, ptr %7, align 8, !tbaa !4
  store ptr %2, ptr %8, align 8, !tbaa !4
  store ptr %3, ptr %9, align 8, !tbaa !4
  store i32 %4, ptr %10, align 4, !tbaa !9
  %14 = load ptr, ptr %7, align 8, !tbaa !4
  %15 = load i32, ptr %10, align 4, !tbaa !9
  %16 = trunc i32 %15 to i8
  call void @llvm.memset.p0.i64(ptr align 1 %14, i8 %16, i64 65, i1 false)
  call void @llvm.lifetime.start.p0(i64 4, ptr %11) #4
  store i32 0, ptr %11, align 4, !tbaa !9
  br label %17

17:                                               ; preds = %67, %5
  %18 = load i32, ptr %11, align 4, !tbaa !9
  %19 = load i32, ptr %10, align 4, !tbaa !9
  %20 = icmp slt i32 %18, %19
  br i1 %20, label %22, label %21

21:                                               ; preds = %17
  call void @llvm.lifetime.end.p0(i64 4, ptr %11) #4
  br label %70

22:                                               ; preds = %17
  call void @llvm.lifetime.start.p0(i64 4, ptr %12) #4
  %23 = load ptr, ptr %8, align 8, !tbaa !4
  %24 = load i32, ptr %11, align 4, !tbaa !9
  %25 = sext i32 %24 to i64
  %26 = getelementptr inbounds i8, ptr %23, i64 %25
  %27 = load i8, ptr %26, align 1, !tbaa !11
  %28 = zext i8 %27 to i32
  store i32 %28, ptr %12, align 4, !tbaa !9
  call void @llvm.lifetime.start.p0(i64 4, ptr %13) #4
  %29 = load ptr, ptr %9, align 8, !tbaa !4
  %30 = load i32, ptr %11, align 4, !tbaa !9
  %31 = sext i32 %30 to i64
  %32 = getelementptr inbounds i8, ptr %29, i64 %31
  %33 = load i8, ptr %32, align 1, !tbaa !11
  %34 = zext i8 %33 to i32
  store i32 %34, ptr %13, align 4, !tbaa !9
  %35 = load ptr, ptr %7, align 8, !tbaa !4
  %36 = load i32, ptr %12, align 4, !tbaa !9
  %37 = sext i32 %36 to i64
  %38 = getelementptr inbounds i8, ptr %35, i64 %37
  %39 = load i8, ptr %38, align 1, !tbaa !11
  %40 = zext i8 %39 to i32
  %41 = load i32, ptr %10, align 4, !tbaa !9
  %42 = icmp eq i32 %40, %41
  br i1 %42, label %43, label %50

43:                                               ; preds = %22
  %44 = load i32, ptr %11, align 4, !tbaa !9
  %45 = trunc i32 %44 to i8
  %46 = load ptr, ptr %7, align 8, !tbaa !4
  %47 = load i32, ptr %12, align 4, !tbaa !9
  %48 = sext i32 %47 to i64
  %49 = getelementptr inbounds i8, ptr %46, i64 %48
  store i8 %45, ptr %49, align 1, !tbaa !11
  br label %50

50:                                               ; preds = %43, %22
  %51 = load i32, ptr %13, align 4, !tbaa !9
  %52 = load ptr, ptr %6, align 8, !tbaa !4
  %53 = load i32, ptr %12, align 4, !tbaa !9
  %54 = sext i32 %53 to i64
  %55 = getelementptr inbounds i8, ptr %52, i64 %54
  %56 = load i8, ptr %55, align 1, !tbaa !11
  %57 = zext i8 %56 to i32
  %58 = icmp sgt i32 %51, %57
  br i1 %58, label %59, label %66

59:                                               ; preds = %50
  %60 = load i32, ptr %13, align 4, !tbaa !9
  %61 = trunc i32 %60 to i8
  %62 = load ptr, ptr %6, align 8, !tbaa !4
  %63 = load i32, ptr %12, align 4, !tbaa !9
  %64 = sext i32 %63 to i64
  %65 = getelementptr inbounds i8, ptr %62, i64 %64
  store i8 %61, ptr %65, align 1, !tbaa !11
  br label %66

66:                                               ; preds = %59, %50
  call void @llvm.lifetime.end.p0(i64 4, ptr %13) #4
  call void @llvm.lifetime.end.p0(i64 4, ptr %12) #4
  br label %67

67:                                               ; preds = %66
  %68 = load i32, ptr %11, align 4, !tbaa !9
  %69 = add nsw i32 %68, 1
  store i32 %69, ptr %11, align 4, !tbaa !9
  br label %17, !llvm.loop !12

70:                                               ; preds = %21
  ret void
}