; Function Attrs: cold nofree norecurse nosync nounwind optsize memory(argmem: readwrite) uwtable
define void @ff_rl_init_level_run(ptr noundef captures(none) %0, ptr noundef captures(none) initializes((0, 65)) %1, ptr noundef readonly captures(none) %2, ptr noundef readonly captures(none) %3, i32 noundef %4) local_unnamed_addr #0 {
  %6 = trunc i32 %4 to i8
  tail call void @llvm.memset.p0.i64(ptr noundef nonnull align 1 dereferenceable(65) %1, i8 %6, i64 65, i1 false)
  %7 = icmp sgt i32 %4, 0
  br i1 %7, label %.lr.ph.preheader, label %._crit_edge

.lr.ph.preheader:                                 ; preds = %5
  %wide.trip.count = zext nneg i32 %4 to i64
  br label %.lr.ph

._crit_edge:                                      ; preds = %24, %5
  ret void

.lr.ph:                                           ; preds = %.lr.ph.preheader, %24
  %indvars.iv = phi i64 [ 0, %.lr.ph.preheader ], [ %indvars.iv.next, %24 ]
  %8 = getelementptr inbounds nuw i8, ptr %2, i64 %indvars.iv
  %9 = load i8, ptr %8, align 1, !tbaa !4
  %10 = getelementptr inbounds nuw i8, ptr %3, i64 %indvars.iv
  %11 = load i8, ptr %10, align 1, !tbaa !4
  %12 = zext i8 %9 to i64
  %13 = getelementptr inbounds nuw i8, ptr %1, i64 %12
  %14 = load i8, ptr %13, align 1, !tbaa !4
  %15 = zext i8 %14 to i32
  %16 = icmp eq i32 %4, %15
  br i1 %16, label %17, label %19

17:                                               ; preds = %.lr.ph
  %18 = trunc i64 %indvars.iv to i8
  store i8 %18, ptr %13, align 1, !tbaa !4
  br label %19

19:                                               ; preds = %17, %.lr.ph
  %20 = getelementptr inbounds nuw i8, ptr %0, i64 %12
  %21 = load i8, ptr %20, align 1, !tbaa !4
  %22 = icmp ugt i8 %11, %21
  br i1 %22, label %23, label %24

23:                                               ; preds = %19
  store i8 %11, ptr %20, align 1, !tbaa !4
  br label %24

24:                                               ; preds = %23, %19
  %indvars.iv.next = add nuw nsw i64 %indvars.iv, 1
  %exitcond.not = icmp eq i64 %indvars.iv.next, %wide.trip.count
  br i1 %exitcond.not, label %._crit_edge, label %.lr.ph, !llvm.loop !7
}